target datalayout = "e-m:e-p270:32:32-p271:32:32-p272:64:64-i64:64-i128:128-f80:128-n8:16:32:64-S128"
target triple = "x86_64-pc-linux-gnu"

%struct.IP_TESTDATA = type { ptr, ptr, i32 }

@.str.3 = private unnamed_addr constant [37 x i8] c"../openssl/test/x509_internal_test.c\00", align 1
@.str.6 = private unnamed_addr constant [3 x i8] c"ip\00", align 1
@.str.7 = private unnamed_addr constant [40 x i8] c"'%s' should not be parsed as IP address\00", align 1
@.str.8 = private unnamed_addr constant [23 x i8] c"ASN1_STRING_length(ip)\00", align 1
@.str.9 = private unnamed_addr constant [4 x i8] c"len\00", align 1
@.str.10 = private unnamed_addr constant [26 x i8] c"ASN1_STRING_get0_data(ip)\00", align 1
@.str.11 = private unnamed_addr constant [30 x i8] c"a2i_ipaddress_tests[idx].data\00", align 1

; Function Attrs: nounwind uwtable
define internal i32 @test_a2i_ipaddress(i32 noundef %0) #0 {
  %2 = alloca i32, align 4
  %3 = alloca i32, align 4
  %4 = alloca ptr, align 8
  %5 = alloca i32, align 4
  store i32 %0, ptr %2, align 4, !tbaa !4
  call void @llvm.lifetime.start.p0(i64 4, ptr %3) #3
  store i32 1, ptr %3, align 4, !tbaa !4
  call void @llvm.lifetime.start.p0(i64 8, ptr %4) #3
  call void @llvm.lifetime.start.p0(i64 4, ptr %5) #3
  %6 = load i32, ptr %2, align 4, !tbaa !4
  %7 = sext i32 %6 to i64
  %8 = getelementptr inbounds [62 x %struct.IP_TESTDATA], ptr @a2i_ipaddress_tests, i64 0, i64 %7
  %9 = getelementptr inbounds nuw %struct.IP_TESTDATA, ptr %8, i32 0, i32 2
  %10 = load i32, ptr %9, align 8, !tbaa !20
  store i32 %10, ptr %5, align 4, !tbaa !4
  %11 = load i32, ptr %2, align 4, !tbaa !4
  %12 = sext i32 %11 to i64
  %13 = getelementptr inbounds [62 x %struct.IP_TESTDATA], ptr @a2i_ipaddress_tests, i64 0, i64 %12
  %14 = getelementptr inbounds nuw %struct.IP_TESTDATA, ptr %13, i32 0, i32 0
  %15 = load ptr, ptr %14, align 8, !tbaa !23
  %16 = call ptr @a2i_IPADDRESS(ptr noundef %15)
  store ptr %16, ptr %4, align 8, !tbaa !24
  %17 = load i32, ptr %5, align 4, !tbaa !4
  %18 = icmp eq i32 %17, 0
  br i1 %18, label %19, label %30

19:                                               ; preds = %1
  %20 = load ptr, ptr %4, align 8, !tbaa !24
  %21 = call i32 @test_ptr_null(ptr noundef @.str.3, i32 noundef 159, ptr noundef @.str.6, ptr noundef %20)
  %22 = icmp ne i32 %21, 0
  br i1 %22, label %29, label %23

23:                                               ; preds = %19
  store i32 0, ptr %3, align 4, !tbaa !4
  %24 = load i32, ptr %2, align 4, !tbaa !4
  %25 = sext i32 %24 to i64
  %26 = getelementptr inbounds [62 x %struct.IP_TESTDATA], ptr @a2i_ipaddress_tests, i64 0, i64 %25
  %27 = getelementptr inbounds nuw %struct.IP_TESTDATA, ptr %26, i32 0, i32 0
  %28 = load ptr, ptr %27, align 8, !tbaa !23
  call void (ptr, ...) @test_note(ptr noundef @.str.7, ptr noundef %28)
  br label %29

29:                                               ; preds = %23, %19
  br label %56

30:                                               ; preds = %1
  %31 = load ptr, ptr %4, align 8, !tbaa !24
  %32 = call i32 @test_ptr(ptr noundef @.str.3, i32 noundef 164, ptr noundef @.str.6, ptr noundef %31)
  %33 = icmp ne i32 %32, 0
  br i1 %33, label %34, label %54

34:                                               ; preds = %30
  %35 = load ptr, ptr %4, align 8, !tbaa !24
  %36 = call i32 @ASN1_STRING_length(ptr noundef %35)
  %37 = load i32, ptr %5, align 4, !tbaa !4
  %38 = call i32 @test_int_eq(ptr noundef @.str.3, i32 noundef 165, ptr noundef @.str.8, ptr noundef @.str.9, i32 noundef %36, i32 noundef %37)
  %39 = icmp ne i32 %38, 0
  br i1 %39, label %40, label %54

40:                                               ; preds = %34
  %41 = load ptr, ptr %4, align 8, !tbaa !24
  %42 = call ptr @ASN1_STRING_get0_data(ptr noundef %41)
  %43 = load i32, ptr %5, align 4, !tbaa !4
  %44 = sext i32 %43 to i64
  %45 = load i32, ptr %2, align 4, !tbaa !4
  %46 = sext i32 %45 to i64
  %47 = getelementptr inbounds [62 x %struct.IP_TESTDATA], ptr @a2i_ipaddress_tests, i64 0, i64 %46
  %48 = getelementptr inbounds nuw %struct.IP_TESTDATA, ptr %47, i32 0, i32 1
  %49 = load ptr, ptr %48, align 8, !tbaa !26
  %50 = load i32, ptr %5, align 4, !tbaa !4
  %51 = sext i32 %50 to i64
  %52 = call i32 @test_mem_eq(ptr noundef @.str.3, i32 noundef 167, ptr noundef @.str.10, ptr noundef @.str.11, ptr noundef %42, i64 noundef %44, ptr noundef %49, i64 noundef %51)
  %53 = icmp ne i32 %52, 0
  br i1 %53, label %55, label %54

54:                                               ; preds = %40, %34, %30
  store i32 0, ptr %3, align 4, !tbaa !4
  br label %55

55:                                               ; preds = %54, %40
  br label %56

56:                                               ; preds = %55, %29
  %57 = load ptr, ptr %4, align 8, !tbaa !24
  call void @ASN1_OCTET_STRING_free(ptr noundef %57)
  %58 = load i32, ptr %3, align 4, !tbaa !4
  call void @llvm.lifetime.end.p0(i64 4, ptr %5) #3
  call void @llvm.lifetime.end.p0(i64 8, ptr %4) #3
  call void @llvm.lifetime.end.p0(i64 4, ptr %3) #3
  ret i32 %58
}