; Function Attrs: nounwind uwtable
define internal range(i32 0, 2) i32 @test_a2i_ipaddress(i32 noundef %0) #0 {
  %2 = sext i32 %0 to i64
  %3 = getelementptr inbounds [62 x %struct.IP_TESTDATA], ptr @a2i_ipaddress_tests, i64 0, i64 %2
  %4 = getelementptr inbounds nuw i8, ptr %3, i64 16
  %5 = load i32, ptr %4, align 8, !tbaa !15
  %6 = load ptr, ptr %3, align 8, !tbaa !18
  %7 = tail call ptr @a2i_IPADDRESS(ptr noundef %6) #3
  %8 = icmp eq i32 %5, 0
  br i1 %8, label %9, label %12

9:                                                ; preds = %1
  %10 = tail call i32 @test_ptr_null(ptr noundef nonnull @.str.3, i32 noundef 159, ptr noundef nonnull @.str.6, ptr noundef %7) #3
  %.not16 = icmp eq i32 %10, 0
  br i1 %.not16, label %11, label %24

11:                                               ; preds = %9
  tail call void (ptr, ...) @test_note(ptr noundef nonnull @.str.7, ptr noundef %6) #3
  br label %24

12:                                               ; preds = %1
  %13 = tail call i32 @test_ptr(ptr noundef nonnull @.str.3, i32 noundef 164, ptr noundef nonnull @.str.6, ptr noundef %7) #3
  %.not = icmp eq i32 %13, 0
  br i1 %.not, label %23, label %14

14:                                               ; preds = %12
  %15 = tail call i32 @ASN1_STRING_length(ptr noundef %7) #3
  %16 = tail call i32 @test_int_eq(ptr noundef nonnull @.str.3, i32 noundef 165, ptr noundef nonnull @.str.8, ptr noundef nonnull @.str.9, i32 noundef %15, i32 noundef %5) #3
  %.not14 = icmp eq i32 %16, 0
  br i1 %.not14, label %23, label %17

17:                                               ; preds = %14
  %18 = tail call ptr @ASN1_STRING_get0_data(ptr noundef %7) #3
  %19 = sext i32 %5 to i64
  %20 = getelementptr inbounds nuw i8, ptr %3, i64 8
  %21 = load ptr, ptr %20, align 8, !tbaa !19
  %22 = tail call i32 @test_mem_eq(ptr noundef nonnull @.str.3, i32 noundef 167, ptr noundef nonnull @.str.10, ptr noundef nonnull @.str.11, ptr noundef %18, i64 noundef %19, ptr noundef %21, i64 noundef %19) #3
  %.not15 = icmp eq i32 %22, 0
  br i1 %.not15, label %23, label %24

23:                                               ; preds = %17, %14, %12
  br label %24

24:                                               ; preds = %17, %23, %9, %11
  %.0 = phi i32 [ 1, %9 ], [ 0, %11 ], [ 1, %17 ], [ 0, %23 ]
  tail call void @ASN1_OCTET_STRING_free(ptr noundef %7) #3
  ret i32 %.0
}